target datalayout = "e-m:e-p270:32:32-p271:32:32-p272:64:64-i64:64-i128:128-f80:128-n8:16:32:64-S128"
target triple = "x86_64-pc-linux-gnu"

%struct._lv_global_t = type { i8, i8, %struct.lv_ll_t, ptr, ptr, %struct.lv_ll_t, i8, i32, i32, ptr, %struct.lv_ll_t, ptr, %struct.lv_ll_t, ptr, ptr, i32, ptr, i8, i32, i32, ptr, i32, %struct.lv_timer_state_t, %struct.lv_anim_state_t, %struct.lv_tick_state_t, %struct._lv_draw_buf_handlers_t, %struct._lv_draw_buf_handlers_t, %struct._lv_draw_buf_handlers_t, %struct.lv_ll_t, ptr, ptr, %struct.lv_draw_global_info_t, [4 x %struct.lv_draw_sw_mask_radius_circle_dsc_t], ptr, ptr, ptr, %struct.lv_tlsf_state_t, %struct.lv_ll_t, ptr, ptr, %struct.lv_style_t, i64, ptr, i32, ptr }
%struct.lv_timer_state_t = type { %struct.lv_ll_t, i8, i8, i8, i8, i32, i8, i32, i32, i32, i32, ptr, ptr }
%struct.lv_anim_state_t = type { i8, i8, ptr, %struct.lv_ll_t }
%struct.lv_tick_state_t = type { i32, i8, ptr, ptr }
%struct._lv_draw_buf_handlers_t = type { ptr, ptr, ptr, ptr, ptr, ptr }
%struct.lv_draw_global_info_t = type { ptr, i32, i32, i32, i32, i8 }
%struct.lv_draw_sw_mask_radius_circle_dsc_t = type { ptr, ptr, ptr, ptr, i32, i32, i32 }
%struct.lv_tlsf_state_t = type { ptr, i64, i64, %struct.lv_ll_t }
%struct.lv_ll_t = type { i32, ptr, ptr }
%struct.lv_style_t = type { ptr, i32, i8 }

@lv_global = external global %struct._lv_global_t, align 8

; Function Attrs: inlinehint nounwind uwtable
define internal void @lv_memzero(ptr noundef %0, i64 noundef %1) #3 {
  %3 = alloca ptr, align 8
  %4 = alloca i64, align 8
  store ptr %0, ptr %3, align 8, !tbaa !3
  store i64 %1, ptr %4, align 8, !tbaa !29
  %5 = load ptr, ptr %3, align 8, !tbaa !3
  %6 = load i64, ptr %4, align 8, !tbaa !29
  call void @lv_memset(ptr noundef %5, i8 noundef zeroext 0, i64 noundef %6)
  ret void
}

; Function Attrs: nounwind uwtable
define void @lv_draw_sw_mask_cleanup() #0 {
  %1 = alloca i8, align 1
  call void @llvm.lifetime.start.p0(i64 1, ptr %1) #4
  store i8 0, ptr %1, align 1, !tbaa !26
  br label %2

2:                                                ; preds = %23, %0
  %3 = load i8, ptr %1, align 1, !tbaa !26
  %4 = zext i8 %3 to i32
  %5 = icmp slt i32 %4, 4
  br i1 %5, label %6, label %26

6:                                                ; preds = %2
  %7 = load i8, ptr %1, align 1, !tbaa !26
  %8 = zext i8 %7 to i64
  %9 = getelementptr inbounds nuw [4 x %struct.lv_draw_sw_mask_radius_circle_dsc_t], ptr getelementptr inbounds nuw (%struct._lv_global_t, ptr @lv_global, i32 0, i32 32), i64 0, i64 %8
  %10 = getelementptr inbounds nuw %struct.lv_draw_sw_mask_radius_circle_dsc_t, ptr %9, i32 0, i32 0
  %11 = load ptr, ptr %10, align 8, !tbaa !27
  %12 = icmp ne ptr %11, null
  br i1 %12, label %13, label %19

13:                                               ; preds = %6
  %14 = load i8, ptr %1, align 1, !tbaa !26
  %15 = zext i8 %14 to i64
  %16 = getelementptr inbounds nuw [4 x %struct.lv_draw_sw_mask_radius_circle_dsc_t], ptr getelementptr inbounds nuw (%struct._lv_global_t, ptr @lv_global, i32 0, i32 32), i64 0, i64 %15
  %17 = getelementptr inbounds nuw %struct.lv_draw_sw_mask_radius_circle_dsc_t, ptr %16, i32 0, i32 0
  %18 = load ptr, ptr %17, align 8, !tbaa !27
  call void @lv_free(ptr noundef %18)
  br label %19

19:                                               ; preds = %13, %6
  %20 = load i8, ptr %1, align 1, !tbaa !26
  %21 = zext i8 %20 to i64
  %22 = getelementptr inbounds nuw [4 x %struct.lv_draw_sw_mask_radius_circle_dsc_t], ptr getelementptr inbounds nuw (%struct._lv_global_t, ptr @lv_global, i32 0, i32 32), i64 0, i64 %21
  call void @lv_memzero(ptr noundef %22, i64 noundef 48)
  br label %23

23:                                               ; preds = %19
  %24 = load i8, ptr %1, align 1, !tbaa !26
  %25 = add i8 %24, 1
  store i8 %25, ptr %1, align 1, !tbaa !26
  br label %2, !llvm.loop !28

26:                                               ; preds = %2
  call void @llvm.lifetime.end.p0(i64 1, ptr %1) #4
  ret void
}