; Function Attrs: nounwind uwtable
define void @lv_draw_sw_mask_cleanup() local_unnamed_addr #0 {
  br label %1

1:                                                ; preds = %0, %5
  %indvars.iv = phi i64 [ 0, %0 ], [ %indvars.iv.next, %5 ]
  %2 = getelementptr inbounds nuw [4 x %struct.lv_draw_sw_mask_radius_circle_dsc_t], ptr getelementptr inbounds nuw (i8, ptr @lv_global, i64 568), i64 0, i64 %indvars.iv
  %3 = load ptr, ptr %2, align 8, !tbaa !21
  %.not = icmp eq ptr %3, null
  br i1 %.not, label %5, label %4

4:                                                ; preds = %1
  tail call void @lv_free(ptr noundef nonnull %3) #7
  br label %5

5:                                                ; preds = %4, %1
  tail call void @lv_memset(ptr noundef nonnull %2, i8 noundef zeroext 0, i64 noundef 48) #7
  %indvars.iv.next = add nuw nsw i64 %indvars.iv, 1
  %exitcond.not = icmp eq i64 %indvars.iv.next, 4
  br i1 %exitcond.not, label %6, label %1, !llvm.loop !22

6:                                                ; preds = %5
  ret void
}